target datalayout = "e-m:e-p270:32:32-p271:32:32-p272:64:64-i64:64-i128:128-f80:128-n8:16:32:64-S128"
target triple = "x86_64-pc-linux-gnu"

%struct.pmix_class_t = type { ptr, ptr, ptr, ptr, i32, i32, ptr, ptr, i64 }
%struct.pmix_tma = type { ptr, ptr, ptr, ptr, ptr, ptr, ptr, ptr }
%union.pthread_mutex_t = type { %struct.__pthread_mutex_s }
%struct.__pthread_mutex_s = type { i32, i32, i32, i32, i32, i16, i16, %struct.__pthread_internal_list }
%struct.__pthread_internal_list = type { ptr, ptr }
%union.pthread_cond_t = type { %struct.__pthread_cond_s }
%struct.__pthread_cond_s = type { %union.__atomic_wide_counter, %union.__atomic_wide_counter, [2 x i32], [2 x i32], i32, i32, [2 x i32] }
%union.__atomic_wide_counter = type { i64 }
%struct.pmix_proc = type { [256 x i8], i32 }
%struct.pmix_object_t = type { %union.pthread_mutex_t, ptr, i32, %struct.pmix_tma }
%struct.timeval = type { i64, i64 }
%struct.event = type { %struct.event_callback, %union.anon.3, i32, ptr, %union.anon.5, i16, i16, %struct.timeval }
%struct.event_callback = type { %struct.anon.1, i16, i8, i8, %union.anon.2, ptr }
%struct.anon.1 = type { ptr, ptr }
%union.anon.2 = type { ptr }
%union.anon.3 = type { %struct.anon.4 }
%struct.anon.4 = type { ptr, ptr }
%union.anon.5 = type { %struct.anon.6 }
%struct.anon.6 = type { %struct.anon.7, %struct.timeval }
%struct.anon.7 = type { ptr, ptr }
%struct.pmix_lock_t = type { i32, %struct.pmix_mutex_t, %union.pthread_cond_t, i8 }
%struct.pmix_mutex_t = type { %struct.pmix_object_t, %union.pthread_mutex_t }
%struct.timespec = type { i64, i64 }
%struct.pmix_notify_caddy_t = type { %struct.pmix_object_t, %struct.event, %struct.pmix_lock_t, i64, i32, i32, %struct.pmix_proc, i8, i8, ptr, i64, i64, ptr, i64, i8, ptr, i64, ptr, ptr, ptr }

@pmix_mutex_t_class = external global %struct.pmix_class_t, align 8
@pmix_class_init_epoch = external global i32, align 4

; Function Attrs: inlinehint nounwind uwtable
define internal void @pmix_obj_run_constructors(ptr noundef %0) #2 {
  %2 = alloca ptr, align 8
  %3 = alloca ptr, align 8
  store ptr %0, ptr %2, align 8, !tbaa !20
  call void @llvm.lifetime.start.p0(i64 8, ptr %3) #13
  %4 = load ptr, ptr %2, align 8, !tbaa !20
  %5 = getelementptr inbounds nuw %struct.pmix_object_t, ptr %4, i32 0, i32 1
  %6 = load ptr, ptr %5, align 8, !tbaa !14
  %7 = getelementptr inbounds nuw %struct.pmix_class_t, ptr %6, i32 0, i32 6
  %8 = load ptr, ptr %7, align 8, !tbaa !303
  store ptr %8, ptr %3, align 8, !tbaa !3
  br label %9

9:                                                ; preds = %13, %1
  %10 = load ptr, ptr %3, align 8, !tbaa !3
  %11 = load ptr, ptr %10, align 8, !tbaa !3
  %12 = icmp ne ptr null, %11
  br i1 %12, label %13, label %19

13:                                               ; preds = %9
  %14 = load ptr, ptr %3, align 8, !tbaa !3
  %15 = load ptr, ptr %14, align 8, !tbaa !3
  %16 = load ptr, ptr %2, align 8, !tbaa !20
  call void %15(ptr noundef %16)
  %17 = load ptr, ptr %3, align 8, !tbaa !3
  %18 = getelementptr inbounds nuw ptr, ptr %17, i32 1
  store ptr %18, ptr %3, align 8, !tbaa !3
  br label %9, !llvm.loop !304

19:                                               ; preds = %9
  call void @llvm.lifetime.end.p0(i64 8, ptr %3) #13
  ret void
}

; Function Attrs: inlinehint nounwind uwtable
define internal void @pmix_obj_construct_tma(ptr noundef %0, ptr noundef %1) #2 {
  %3 = alloca ptr, align 8
  %4 = alloca ptr, align 8
  store ptr %0, ptr %3, align 8, !tbaa !20
  store ptr %1, ptr %4, align 8, !tbaa !58
  %5 = load ptr, ptr %4, align 8, !tbaa !58
  %6 = icmp eq ptr null, %5
  br i1 %6, label %7, label %32

7:                                                ; preds = %2
  %8 = load ptr, ptr %3, align 8, !tbaa !20
  %9 = getelementptr inbounds nuw %struct.pmix_object_t, ptr %8, i32 0, i32 3
  %10 = getelementptr inbounds nuw %struct.pmix_tma, ptr %9, i32 0, i32 0
  store ptr null, ptr %10, align 8, !tbaa !295
  %11 = load ptr, ptr %3, align 8, !tbaa !20
  %12 = getelementptr inbounds nuw %struct.pmix_object_t, ptr %11, i32 0, i32 3
  %13 = getelementptr inbounds nuw %struct.pmix_tma, ptr %12, i32 0, i32 1
  store ptr null, ptr %13, align 8, !tbaa !296
  %14 = load ptr, ptr %3, align 8, !tbaa !20
  %15 = getelementptr inbounds nuw %struct.pmix_object_t, ptr %14, i32 0, i32 3
  %16 = getelementptr inbounds nuw %struct.pmix_tma, ptr %15, i32 0, i32 2
  store ptr null, ptr %16, align 8, !tbaa !297
  %17 = load ptr, ptr %3, align 8, !tbaa !20
  %18 = getelementptr inbounds nuw %struct.pmix_object_t, ptr %17, i32 0, i32 3
  %19 = getelementptr inbounds nuw %struct.pmix_tma, ptr %18, i32 0, i32 3
  store ptr null, ptr %19, align 8, !tbaa !298
  %20 = load ptr, ptr %3, align 8, !tbaa !20
  %21 = getelementptr inbounds nuw %struct.pmix_object_t, ptr %20, i32 0, i32 3
  %22 = getelementptr inbounds nuw %struct.pmix_tma, ptr %21, i32 0, i32 4
  store ptr null, ptr %22, align 8, !tbaa !299
  %23 = load ptr, ptr %3, align 8, !tbaa !20
  %24 = getelementptr inbounds nuw %struct.pmix_object_t, ptr %23, i32 0, i32 3
  %25 = getelementptr inbounds nuw %struct.pmix_tma, ptr %24, i32 0, i32 5
  store ptr null, ptr %25, align 8, !tbaa !22
  %26 = load ptr, ptr %3, align 8, !tbaa !20
  %27 = getelementptr inbounds nuw %struct.pmix_object_t, ptr %26, i32 0, i32 3
  %28 = getelementptr inbounds nuw %struct.pmix_tma, ptr %27, i32 0, i32 6
  store ptr null, ptr %28, align 8, !tbaa !300
  %29 = load ptr, ptr %3, align 8, !tbaa !20
  %30 = getelementptr inbounds nuw %struct.pmix_object_t, ptr %29, i32 0, i32 3
  %31 = getelementptr inbounds nuw %struct.pmix_tma, ptr %30, i32 0, i32 7
  store ptr null, ptr %31, align 8, !tbaa !301
  br label %36

32:                                               ; preds = %2
  %33 = load ptr, ptr %3, align 8, !tbaa !20
  %34 = getelementptr inbounds nuw %struct.pmix_object_t, ptr %33, i32 0, i32 3
  %35 = load ptr, ptr %4, align 8, !tbaa !58
  call void @llvm.memcpy.p0.p0.i64(ptr align 8 %34, ptr align 8 %35, i64 64, i1 false), !tbaa.struct !302
  br label %36

36:                                               ; preds = %32, %7
  ret void
}

; Function Attrs: nounwind uwtable
define internal void @ncon(ptr noundef %0) #0 {
  %2 = alloca ptr, align 8
  %3 = alloca %struct.timespec, align 8
  store ptr %0, ptr %2, align 8, !tbaa !3
  br label %4

4:                                                ; preds = %1
  br label %5

5:                                                ; preds = %4
  br label %6

6:                                                ; preds = %5
  br label %7

7:                                                ; preds = %6
  %8 = load i32, ptr @pmix_class_init_epoch, align 4, !tbaa !7
  %9 = load i32, ptr getelementptr inbounds nuw (%struct.pmix_class_t, ptr @pmix_mutex_t_class, i32 0, i32 4), align 8, !tbaa !9
  %10 = icmp ne i32 %8, %9
  br i1 %10, label %11, label %12

11:                                               ; preds = %7
  call void @pmix_class_initialize(ptr noundef @pmix_mutex_t_class)
  br label %12

12:                                               ; preds = %11, %7
  %13 = load ptr, ptr %2, align 8, !tbaa !3
  %14 = getelementptr inbounds nuw %struct.pmix_notify_caddy_t, ptr %13, i32 0, i32 2
  %15 = getelementptr inbounds nuw %struct.pmix_lock_t, ptr %14, i32 0, i32 1
  %16 = getelementptr inbounds nuw %struct.pmix_object_t, ptr %15, i32 0, i32 1
  store ptr @pmix_mutex_t_class, ptr %16, align 8, !tbaa !14
  %17 = load ptr, ptr %2, align 8, !tbaa !3
  %18 = getelementptr inbounds nuw %struct.pmix_notify_caddy_t, ptr %17, i32 0, i32 2
  %19 = getelementptr inbounds nuw %struct.pmix_lock_t, ptr %18, i32 0, i32 1
  %20 = getelementptr inbounds nuw %struct.pmix_object_t, ptr %19, i32 0, i32 2
  store i32 1, ptr %20, align 8, !tbaa !17
  %21 = load ptr, ptr %2, align 8, !tbaa !3
  %22 = getelementptr inbounds nuw %struct.pmix_notify_caddy_t, ptr %21, i32 0, i32 2
  %23 = getelementptr inbounds nuw %struct.pmix_lock_t, ptr %22, i32 0, i32 1
  call void @pmix_obj_construct_tma(ptr noundef %23, ptr noundef null)
  %24 = load ptr, ptr %2, align 8, !tbaa !3
  %25 = getelementptr inbounds nuw %struct.pmix_notify_caddy_t, ptr %24, i32 0, i32 2
  %26 = getelementptr inbounds nuw %struct.pmix_lock_t, ptr %25, i32 0, i32 1
  call void @pmix_obj_run_constructors(ptr noundef %26)
  br label %27

27:                                               ; preds = %12
  br label %28

28:                                               ; preds = %27
  br label %29

29:                                               ; preds = %28
  %30 = load ptr, ptr %2, align 8, !tbaa !3
  %31 = getelementptr inbounds nuw %struct.pmix_notify_caddy_t, ptr %30, i32 0, i32 2
  %32 = getelementptr inbounds nuw %struct.pmix_lock_t, ptr %31, i32 0, i32 2
  %33 = call i32 @pthread_cond_init(ptr noundef %32, ptr noundef null) #13
  %34 = load ptr, ptr %2, align 8, !tbaa !3
  %35 = getelementptr inbounds nuw %struct.pmix_notify_caddy_t, ptr %34, i32 0, i32 2
  %36 = getelementptr inbounds nuw %struct.pmix_lock_t, ptr %35, i32 0, i32 3
  store volatile i8 1, ptr %36, align 8, !tbaa !226
  br label %37

37:                                               ; preds = %29
  call void @llvm.lifetime.start.p0(i64 16, ptr %3) #13
  %38 = call i32 @clock_gettime(i32 noundef 1, ptr noundef %3) #13
  %39 = getelementptr inbounds nuw %struct.timespec, ptr %3, i32 0, i32 0
  %40 = load i64, ptr %39, align 8, !tbaa !228
  %41 = load ptr, ptr %2, align 8, !tbaa !3
  %42 = getelementptr inbounds nuw %struct.pmix_notify_caddy_t, ptr %41, i32 0, i32 3
  store i64 %40, ptr %42, align 8, !tbaa !230
  %43 = load ptr, ptr %2, align 8, !tbaa !3
  %44 = getelementptr inbounds nuw %struct.pmix_notify_caddy_t, ptr %43, i32 0, i32 4
  store i32 -1, ptr %44, align 8, !tbaa !231
  %45 = load ptr, ptr %2, align 8, !tbaa !3
  %46 = getelementptr inbounds nuw %struct.pmix_notify_caddy_t, ptr %45, i32 0, i32 6
  %47 = getelementptr inbounds nuw %struct.pmix_proc, ptr %46, i32 0, i32 0
  %48 = getelementptr inbounds [256 x i8], ptr %47, i64 0, i64 0
  call void @llvm.memset.p0.i64(ptr align 8 %48, i8 0, i64 256, i1 false)
  %49 = load ptr, ptr %2, align 8, !tbaa !3
  %50 = getelementptr inbounds nuw %struct.pmix_notify_caddy_t, ptr %49, i32 0, i32 6
  %51 = getelementptr inbounds nuw %struct.pmix_proc, ptr %50, i32 0, i32 1
  store i32 -1, ptr %51, align 8, !tbaa !232
  %52 = load ptr, ptr %2, align 8, !tbaa !3
  %53 = getelementptr inbounds nuw %struct.pmix_notify_caddy_t, ptr %52, i32 0, i32 7
  store i8 0, ptr %53, align 4, !tbaa !233
  %54 = load ptr, ptr %2, align 8, !tbaa !3
  %55 = getelementptr inbounds nuw %struct.pmix_notify_caddy_t, ptr %54, i32 0, i32 8
  store i8 0, ptr %55, align 1, !tbaa !234
  %56 = load ptr, ptr %2, align 8, !tbaa !3
  %57 = getelementptr inbounds nuw %struct.pmix_notify_caddy_t, ptr %56, i32 0, i32 9
  store ptr null, ptr %57, align 8, !tbaa !235
  %58 = load ptr, ptr %2, align 8, !tbaa !3
  %59 = getelementptr inbounds nuw %struct.pmix_notify_caddy_t, ptr %58, i32 0, i32 10
  store i64 0, ptr %59, align 8, !tbaa !236
  %60 = load ptr, ptr %2, align 8, !tbaa !3
  %61 = getelementptr inbounds nuw %struct.pmix_notify_caddy_t, ptr %60, i32 0, i32 11
  store i64 -1, ptr %61, align 8, !tbaa !237
  %62 = load ptr, ptr %2, align 8, !tbaa !3
  %63 = getelementptr inbounds nuw %struct.pmix_notify_caddy_t, ptr %62, i32 0, i32 12
  store ptr null, ptr %63, align 8, !tbaa !238
  %64 = load ptr, ptr %2, align 8, !tbaa !3
  %65 = getelementptr inbounds nuw %struct.pmix_notify_caddy_t, ptr %64, i32 0, i32 13
  store i64 0, ptr %65, align 8, !tbaa !239
  %66 = load ptr, ptr %2, align 8, !tbaa !3
  %67 = getelementptr inbounds nuw %struct.pmix_notify_caddy_t, ptr %66, i32 0, i32 14
  store i8 0, ptr %67, align 8, !tbaa !240
  %68 = load ptr, ptr %2, align 8, !tbaa !3
  %69 = getelementptr inbounds nuw %struct.pmix_notify_caddy_t, ptr %68, i32 0, i32 15
  store ptr null, ptr %69, align 8, !tbaa !241
  %70 = load ptr, ptr %2, align 8, !tbaa !3
  %71 = getelementptr inbounds nuw %struct.pmix_notify_caddy_t, ptr %70, i32 0, i32 16
  store i64 0, ptr %71, align 8, !tbaa !242
  call void @llvm.lifetime.end.p0(i64 16, ptr %3) #13
  ret void
}