; Function Attrs: nounwind uwtable
define internal void @ncon(ptr noundef initializes((296, 308), (312, 376)) %0) #0 {
  %2 = alloca %struct.timespec, align 8
  %3 = load i32, ptr @pmix_class_init_epoch, align 4, !tbaa !3
  %4 = load i32, ptr getelementptr inbounds nuw (i8, ptr @pmix_mutex_t_class, i64 32), align 8, !tbaa !7
  %.not = icmp eq i32 %3, %4
  br i1 %.not, label %6, label %5

5:                                                ; preds = %1
  tail call void @pmix_class_initialize(ptr noundef nonnull @pmix_mutex_t_class) #15
  br label %6

6:                                                ; preds = %5, %1
  %7 = getelementptr inbounds nuw i8, ptr %0, i64 256
  %8 = getelementptr inbounds nuw i8, ptr %0, i64 296
  store ptr @pmix_mutex_t_class, ptr %8, align 8, !tbaa !13
  %9 = getelementptr inbounds nuw i8, ptr %0, i64 304
  store i32 1, ptr %9, align 8, !tbaa !16
  %10 = getelementptr inbounds nuw i8, ptr %0, i64 312
  tail call void @llvm.memset.p0.i64(ptr noundef nonnull align 8 dereferenceable(64) %10, i8 0, i64 64, i1 false)
  %11 = load ptr, ptr getelementptr inbounds nuw (i8, ptr @pmix_mutex_t_class, i64 40), align 8, !tbaa !17
  %12 = load ptr, ptr %11, align 8, !tbaa !18
  %.not6.i = icmp eq ptr %12, null
  br i1 %.not6.i, label %pmix_obj_run_constructors.exit, label %.lr.ph.i

.lr.ph.i:                                         ; preds = %6, %.lr.ph.i
  %13 = phi ptr [ %15, %.lr.ph.i ], [ %12, %6 ]
  %.07.i = phi ptr [ %14, %.lr.ph.i ], [ %11, %6 ]
  tail call void %13(ptr noundef nonnull %7) #15
  %14 = getelementptr inbounds nuw i8, ptr %.07.i, i64 8
  %15 = load ptr, ptr %14, align 8, !tbaa !18
  %.not.i = icmp eq ptr %15, null
  br i1 %.not.i, label %pmix_obj_run_constructors.exit, label %.lr.ph.i, !llvm.loop !19

pmix_obj_run_constructors.exit:                   ; preds = %.lr.ph.i, %6
  %16 = getelementptr inbounds nuw i8, ptr %0, i64 416
  %17 = tail call i32 @pthread_cond_init(ptr noundef nonnull %16, ptr noundef null) #15
  %18 = getelementptr inbounds nuw i8, ptr %0, i64 464
  store volatile i8 1, ptr %18, align 8, !tbaa !181
  call void @llvm.lifetime.start.p0(i64 16, ptr nonnull %2) #15
  %19 = call i32 @clock_gettime(i32 noundef 1, ptr noundef nonnull %2) #15
  %20 = load i64, ptr %2, align 8, !tbaa !183
  %21 = getelementptr inbounds nuw i8, ptr %0, i64 472
  store i64 %20, ptr %21, align 8, !tbaa !185
  %22 = getelementptr inbounds nuw i8, ptr %0, i64 480
  store i32 -1, ptr %22, align 8, !tbaa !186
  %23 = getelementptr inbounds nuw i8, ptr %0, i64 488
  call void @llvm.memset.p0.i64(ptr noundef nonnull align 8 dereferenceable(256) %23, i8 0, i64 256, i1 false)
  %24 = getelementptr inbounds nuw i8, ptr %0, i64 744
  store i32 -1, ptr %24, align 8, !tbaa !187
  %25 = getelementptr inbounds nuw i8, ptr %0, i64 748
  store i8 0, ptr %25, align 4, !tbaa !188
  %26 = getelementptr inbounds nuw i8, ptr %0, i64 749
  store i8 0, ptr %26, align 1, !tbaa !189
  %27 = getelementptr inbounds nuw i8, ptr %0, i64 752
  %28 = getelementptr inbounds nuw i8, ptr %0, i64 768
  call void @llvm.memset.p0.i64(ptr noundef nonnull align 8 dereferenceable(16) %27, i8 0, i64 16, i1 false)
  store i64 -1, ptr %28, align 8, !tbaa !190
  %29 = getelementptr inbounds nuw i8, ptr %0, i64 776
  %30 = getelementptr inbounds nuw i8, ptr %0, i64 800
  call void @llvm.memset.p0.i64(ptr noundef nonnull align 8 dereferenceable(17) %29, i8 0, i64 17, i1 false)
  call void @llvm.memset.p0.i64(ptr noundef nonnull align 8 dereferenceable(16) %30, i8 0, i64 16, i1 false)
  call void @llvm.lifetime.end.p0(i64 16, ptr nonnull %2) #15
  ret void
}